target datalayout = "e-m:e-p270:32:32-p271:32:32-p272:64:64-i64:64-i128:128-f80:128-n8:16:32:64-S128"
target triple = "x86_64-pc-linux-gnu"

%struct.Node = type { i32 }
%struct.TypeName = type { i32, ptr, i32, i8, i8, ptr, i32, ptr, i32 }
%struct.ColumnDef = type { i32, ptr, ptr, ptr, i16, i8, i8, i8, i8, ptr, ptr, ptr, i8, ptr, i8, ptr, i32, ptr, ptr, i32 }

; Function Attrs: nounwind uwtable
define dso_local ptr @makeTypeNameFromOid(i32 noundef %0, i32 noundef %1) #0 {
  %3 = alloca i32, align 4
  %4 = alloca i32, align 4
  %5 = alloca ptr, align 8
  store i32 %0, ptr %3, align 4
  store i32 %1, ptr %4, align 4
  call void @llvm.lifetime.start.p0(i64 8, ptr %5) #6
  %6 = call ptr @newNode(i64 noundef 56, i32 noundef 68)
  store ptr %6, ptr %5, align 8
  %7 = load i32, ptr %3, align 4
  %8 = load ptr, ptr %5, align 8
  %9 = getelementptr inbounds nuw %struct.TypeName, ptr %8, i32 0, i32 2
  store i32 %7, ptr %9, align 8
  %10 = load i32, ptr %4, align 4
  %11 = load ptr, ptr %5, align 8
  %12 = getelementptr inbounds nuw %struct.TypeName, ptr %11, i32 0, i32 6
  store i32 %10, ptr %12, align 8
  %13 = load ptr, ptr %5, align 8
  %14 = getelementptr inbounds nuw %struct.TypeName, ptr %13, i32 0, i32 8
  store i32 -1, ptr %14, align 8
  %15 = load ptr, ptr %5, align 8
  call void @llvm.lifetime.end.p0(i64 8, ptr %5) #6
  ret ptr %15
}

; Function Attrs: inlinehint nounwind uwtable
define internal ptr @newNode(i64 noundef %0, i32 noundef %1) #2 {
  %3 = alloca i64, align 8
  %4 = alloca i32, align 4
  %5 = alloca ptr, align 8
  store i64 %0, ptr %3, align 8
  store i32 %1, ptr %4, align 4
  call void @llvm.lifetime.start.p0(i64 8, ptr %5) #6
  %6 = load i64, ptr %3, align 8
  %7 = call ptr @palloc0(i64 noundef %6)
  store ptr %7, ptr %5, align 8
  %8 = load i32, ptr %4, align 4
  %9 = load ptr, ptr %5, align 8
  %10 = getelementptr inbounds nuw %struct.Node, ptr %9, i32 0, i32 0
  store i32 %8, ptr %10, align 4
  %11 = load ptr, ptr %5, align 8
  call void @llvm.lifetime.end.p0(i64 8, ptr %5) #6
  ret ptr %11
}

; Function Attrs: nounwind uwtable
define dso_local ptr @makeColumnDef(ptr noundef %0, i32 noundef %1, i32 noundef %2, i32 noundef %3) #0 {
  %5 = alloca ptr, align 8
  %6 = alloca i32, align 4
  %7 = alloca i32, align 4
  %8 = alloca i32, align 4
  %9 = alloca ptr, align 8
  store ptr %0, ptr %5, align 8
  store i32 %1, ptr %6, align 4
  store i32 %2, ptr %7, align 4
  store i32 %3, ptr %8, align 4
  call void @llvm.lifetime.start.p0(i64 8, ptr %9) #6
  %10 = call ptr @newNode(i64 noundef 128, i32 noundef 90)
  store ptr %10, ptr %9, align 8
  %11 = load ptr, ptr %5, align 8
  %12 = call ptr @pstrdup(ptr noundef %11)
  %13 = load ptr, ptr %9, align 8
  %14 = getelementptr inbounds nuw %struct.ColumnDef, ptr %13, i32 0, i32 1
  store ptr %12, ptr %14, align 8
  %15 = load i32, ptr %6, align 4
  %16 = load i32, ptr %7, align 4
  %17 = call ptr @makeTypeNameFromOid(i32 noundef %15, i32 noundef %16)
  %18 = load ptr, ptr %9, align 8
  %19 = getelementptr inbounds nuw %struct.ColumnDef, ptr %18, i32 0, i32 2
  store ptr %17, ptr %19, align 8
  %20 = load ptr, ptr %9, align 8
  %21 = getelementptr inbounds nuw %struct.ColumnDef, ptr %20, i32 0, i32 4
  store i16 0, ptr %21, align 8
  %22 = load ptr, ptr %9, align 8
  %23 = getelementptr inbounds nuw %struct.ColumnDef, ptr %22, i32 0, i32 5
  store i8 1, ptr %23, align 2
  %24 = load ptr, ptr %9, align 8
  %25 = getelementptr inbounds nuw %struct.ColumnDef, ptr %24, i32 0, i32 6
  store i8 0, ptr %25, align 1
  %26 = load ptr, ptr %9, align 8
  %27 = getelementptr inbounds nuw %struct.ColumnDef, ptr %26, i32 0, i32 7
  store i8 0, ptr %27, align 4
  %28 = load ptr, ptr %9, align 8
  %29 = getelementptr inbounds nuw %struct.ColumnDef, ptr %28, i32 0, i32 8
  store i8 0, ptr %29, align 1
  %30 = load ptr, ptr %9, align 8
  %31 = getelementptr inbounds nuw %struct.ColumnDef, ptr %30, i32 0, i32 10
  store ptr null, ptr %31, align 8
  %32 = load ptr, ptr %9, align 8
  %33 = getelementptr inbounds nuw %struct.ColumnDef, ptr %32, i32 0, i32 11
  store ptr null, ptr %33, align 8
  %34 = load ptr, ptr %9, align 8
  %35 = getelementptr inbounds nuw %struct.ColumnDef, ptr %34, i32 0, i32 15
  store ptr null, ptr %35, align 8
  %36 = load i32, ptr %8, align 4
  %37 = load ptr, ptr %9, align 8
  %38 = getelementptr inbounds nuw %struct.ColumnDef, ptr %37, i32 0, i32 16
  store i32 %36, ptr %38, align 8
  %39 = load ptr, ptr %9, align 8
  %40 = getelementptr inbounds nuw %struct.ColumnDef, ptr %39, i32 0, i32 17
  store ptr null, ptr %40, align 8
  %41 = load ptr, ptr %9, align 8
  %42 = getelementptr inbounds nuw %struct.ColumnDef, ptr %41, i32 0, i32 18
  store ptr null, ptr %42, align 8
  %43 = load ptr, ptr %9, align 8
  %44 = getelementptr inbounds nuw %struct.ColumnDef, ptr %43, i32 0, i32 19
  store i32 -1, ptr %44, align 8
  %45 = load ptr, ptr %9, align 8
  call void @llvm.lifetime.end.p0(i64 8, ptr %9) #6
  ret ptr %45
}