; Function Attrs: nounwind uwtable
define dso_local noundef ptr @makeColumnDef(ptr noundef %0, i32 noundef %1, i32 noundef %2, i32 noundef %3) local_unnamed_addr #0 {
  %5 = tail call noundef ptr @palloc0(i64 noundef 128) #7
  store i32 90, ptr %5, align 4
  %6 = tail call ptr @pstrdup(ptr noundef %0) #7
  %7 = getelementptr inbounds nuw i8, ptr %5, i64 8
  store ptr %6, ptr %7, align 8
  %8 = tail call noundef ptr @palloc0(i64 noundef 56) #7
  store i32 68, ptr %8, align 4
  %9 = getelementptr inbounds nuw i8, ptr %8, i64 16
  store i32 %1, ptr %9, align 8
  %10 = getelementptr inbounds nuw i8, ptr %8, i64 32
  store i32 %2, ptr %10, align 8
  %11 = getelementptr inbounds nuw i8, ptr %8, i64 48
  store i32 -1, ptr %11, align 8
  %12 = getelementptr inbounds nuw i8, ptr %5, i64 16
  store ptr %8, ptr %12, align 8
  %13 = getelementptr inbounds nuw i8, ptr %5, i64 32
  store i16 0, ptr %13, align 8
  %14 = getelementptr inbounds nuw i8, ptr %5, i64 34
  store i8 1, ptr %14, align 2
  %15 = getelementptr inbounds nuw i8, ptr %5, i64 35
  store i8 0, ptr %15, align 1
  %16 = getelementptr inbounds nuw i8, ptr %5, i64 36
  store i8 0, ptr %16, align 4
  %17 = getelementptr inbounds nuw i8, ptr %5, i64 37
  store i8 0, ptr %17, align 1
  %18 = getelementptr inbounds nuw i8, ptr %5, i64 48
  %19 = getelementptr inbounds nuw i8, ptr %5, i64 88
  store ptr null, ptr %19, align 8
  %20 = getelementptr inbounds nuw i8, ptr %5, i64 96
  tail call void @llvm.memset.p0.i64(ptr noundef nonnull align 8 dereferenceable(16) %18, i8 0, i64 16, i1 false)
  store i32 %3, ptr %20, align 8
  %21 = getelementptr inbounds nuw i8, ptr %5, i64 104
  %22 = getelementptr inbounds nuw i8, ptr %5, i64 120
  tail call void @llvm.memset.p0.i64(ptr noundef nonnull align 8 dereferenceable(16) %21, i8 0, i64 16, i1 false)
  store i32 -1, ptr %22, align 8
  ret ptr %5
}